; Function Attrs: nounwind uwtable
define ptr @l___private_Init_Data_Array_Bootstrap_0__Array_foldlM_loop_match__1_splitter___rarg(ptr noundef %0, ptr noundef %1, ptr noundef %2) local_unnamed_addr #0 {
  %4 = ptrtoint ptr %0 to i64
  %5 = and i64 %4, 1
  %.not = icmp eq i64 %5, 0
  br i1 %.not, label %lean_nat_eq.exit.thread, label %lean_nat_eq.exit, !prof !16

lean_nat_eq.exit:                                 ; preds = %3
  %.not14 = icmp eq ptr %0, inttoptr (i64 1 to ptr)
  br i1 %.not14, label %14, label %7

lean_nat_eq.exit.thread:                          ; preds = %3
  %6 = tail call zeroext i1 @lean_nat_big_eq(ptr noundef %0, ptr noundef nonnull inttoptr (i64 1 to ptr)) #3
  br i1 %6, label %14, label %.critedge.i

7:                                                ; preds = %lean_nat_eq.exit
  %8 = icmp ult ptr %0, inttoptr (i64 2 to ptr)
  br i1 %8, label %lean_nat_sub.exit, label %9

9:                                                ; preds = %7
  %10 = add i64 %4, -2
  %11 = inttoptr i64 %10 to ptr
  br label %lean_nat_sub.exit

.critedge.i:                                      ; preds = %lean_nat_eq.exit.thread
  %12 = tail call ptr @lean_nat_big_sub(ptr noundef %0, ptr noundef nonnull inttoptr (i64 3 to ptr)) #3
  br label %lean_nat_sub.exit

lean_nat_sub.exit:                                ; preds = %7, %9, %.critedge.i
  %.1.i = phi ptr [ %12, %.critedge.i ], [ %11, %9 ], [ inttoptr (i64 1 to ptr), %7 ]
  %13 = tail call ptr @lean_apply_1(ptr noundef %2, ptr noundef %.1.i) #3
  br label %lean_inc.exit

14:                                               ; preds = %lean_nat_eq.exit.thread, %lean_nat_eq.exit
  %15 = ptrtoint ptr %2 to i64
  %16 = and i64 %15, 1
  %.not15 = icmp eq i64 %16, 0
  br i1 %.not15, label %17, label %lean_dec.exit

17:                                               ; preds = %14
  %18 = load i32, ptr %2, align 4, !tbaa !4
  %19 = icmp sgt i32 %18, 1
  br i1 %19, label %20, label %22, !prof !9

20:                                               ; preds = %17
  %21 = add nsw i32 %18, -1
  store i32 %21, ptr %2, align 4, !tbaa !4
  br label %lean_dec.exit

22:                                               ; preds = %17
  %.not.i = icmp eq i32 %18, 0
  br i1 %.not.i, label %lean_dec.exit, label %23

23:                                               ; preds = %22
  tail call void @lean_dec_ref_cold(ptr noundef nonnull %2) #3
  br label %lean_dec.exit

lean_dec.exit:                                    ; preds = %23, %22, %20, %14
  %24 = ptrtoint ptr %1 to i64
  %25 = and i64 %24, 1
  %.not16 = icmp eq i64 %25, 0
  br i1 %.not16, label %26, label %lean_inc.exit

26:                                               ; preds = %lean_dec.exit
  %.val.i = load i32, ptr %1, align 4, !tbaa !4
  %27 = icmp sgt i32 %.val.i, 0
  br i1 %27, label %28, label %30, !prof !9

28:                                               ; preds = %26
  %29 = add nuw i32 %.val.i, 1
  store i32 %29, ptr %1, align 4, !tbaa !4
  br label %lean_inc.exit

30:                                               ; preds = %26
  %.not.i12 = icmp eq i32 %.val.i, 0
  br i1 %.not.i12, label %lean_inc.exit, label %31

31:                                               ; preds = %30
  tail call void @lean_inc_ref_cold(ptr noundef nonnull %1) #3
  br label %lean_inc.exit

lean_inc.exit:                                    ; preds = %lean_dec.exit, %28, %30, %31, %lean_nat_sub.exit
  %.0 = phi ptr [ %13, %lean_nat_sub.exit ], [ %1, %31 ], [ %1, %30 ], [ %1, %28 ], [ %1, %lean_dec.exit ]
  ret ptr %.0
}